; Function Attrs: mustprogress uwtable
define ptr @ggml_backend_sched_get_tensor_backend(ptr noundef readonly captures(none) %0, ptr noundef %1) local_unnamed_addr #0 {
  %3 = getelementptr inbounds nuw i8, ptr %0, i64 296
  %4 = load ptr, ptr %3, align 8, !tbaa !121
  %5 = getelementptr inbounds nuw i8, ptr %0, i64 272
  %6 = ptrtoint ptr %1 to i64
  %7 = lshr i64 %6, 4
  %8 = load i64, ptr %5, align 8, !tbaa !155
  %9 = urem i64 %7, %8
  %10 = getelementptr inbounds nuw i8, ptr %0, i64 280
  %11 = load ptr, ptr %10, align 8, !tbaa !156
  %12 = getelementptr inbounds nuw i8, ptr %0, i64 288
  br label %13

13:                                               ; preds = %31, %2
  %.0.i = phi i64 [ %9, %2 ], [ %34, %31 ]
  %.0.fr.i = freeze i64 %.0.i
  %14 = lshr i64 %.0.fr.i, 5
  %15 = getelementptr inbounds nuw i32, ptr %11, i64 %14
  %16 = load i32, ptr %15, align 4, !tbaa !157
  %17 = trunc i64 %.0.fr.i to i32
  %18 = and i32 %17, 31
  %19 = shl nuw i32 1, %18
  %20 = and i32 %19, %16
  %.not21.i = icmp eq i32 %20, 0
  br i1 %.not21.i, label %21, label %26

21:                                               ; preds = %13
  %22 = getelementptr inbounds nuw i32, ptr %11, i64 %14
  %23 = or i32 %19, %16
  store i32 %23, ptr %22, align 4, !tbaa !157
  %24 = load ptr, ptr %12, align 8, !tbaa !158
  %25 = getelementptr inbounds nuw ptr, ptr %24, i64 %.0.fr.i
  store ptr %1, ptr %25, align 8, !tbaa !154
  br label %_ZL24ggml_hash_find_or_insertP13ggml_hash_setP11ggml_tensor.exit

26:                                               ; preds = %13
  %27 = load ptr, ptr %12, align 8, !tbaa !158
  %28 = getelementptr inbounds nuw ptr, ptr %27, i64 %.0.fr.i
  %29 = load ptr, ptr %28, align 8, !tbaa !154
  %30 = icmp eq ptr %29, %1
  br i1 %30, label %_ZL24ggml_hash_find_or_insertP13ggml_hash_setP11ggml_tensor.exit, label %31

31:                                               ; preds = %26
  %32 = add i64 %.0.fr.i, 1
  %33 = icmp eq i64 %32, %8
  %34 = select i1 %33, i64 0, i64 %32
  %.not.i = icmp eq i64 %34, %9
  br i1 %.not.i, label %35, label %13, !llvm.loop !159

35:                                               ; preds = %31
  tail call void (ptr, i32, ptr, ...) @ggml_abort(ptr noundef nonnull @.str.57, i32 noundef 276, ptr noundef nonnull @.str.58) #24
  unreachable

_ZL24ggml_hash_find_or_insertP13ggml_hash_setP11ggml_tensor.exit: ; preds = %26, %21
  %36 = getelementptr inbounds nuw i32, ptr %4, i64 %.0.fr.i
  %37 = load i32, ptr %36, align 4, !tbaa !157
  %38 = icmp eq i32 %37, -1
  br i1 %38, label %44, label %39

39:                                               ; preds = %_ZL24ggml_hash_find_or_insertP13ggml_hash_setP11ggml_tensor.exit
  %40 = getelementptr inbounds nuw i8, ptr %0, i64 8
  %41 = sext i32 %37 to i64
  %42 = getelementptr inbounds [16 x ptr], ptr %40, i64 0, i64 %41
  %43 = load ptr, ptr %42, align 8, !tbaa !102
  br label %44

44:                                               ; preds = %_ZL24ggml_hash_find_or_insertP13ggml_hash_setP11ggml_tensor.exit, %39
  %.0 = phi ptr [ %43, %39 ], [ null, %_ZL24ggml_hash_find_or_insertP13ggml_hash_setP11ggml_tensor.exit ]
  ret ptr %.0
}